
Master.elf:     file format elf32-avr

Sections:
Idx Name          Size      VMA       LMA       File off  Algn
  0 .text         000006a2  00000000  00000000  00000074  2**1
                  CONTENTS, ALLOC, LOAD, READONLY, CODE
  1 .data         00000056  00800060  000006a2  00000716  2**0
                  CONTENTS, ALLOC, LOAD, DATA
  2 .comment      00000030  00000000  00000000  0000076c  2**0
                  CONTENTS, READONLY
  3 .note.gnu.avr.deviceinfo 0000003c  00000000  00000000  0000079c  2**2
                  CONTENTS, READONLY
  4 .debug_aranges 00000148  00000000  00000000  000007d8  2**0
                  CONTENTS, READONLY, DEBUGGING
  5 .debug_info   00001910  00000000  00000000  00000920  2**0
                  CONTENTS, READONLY, DEBUGGING
  6 .debug_abbrev 00000b22  00000000  00000000  00002230  2**0
                  CONTENTS, READONLY, DEBUGGING
  7 .debug_line   00000cba  00000000  00000000  00002d52  2**0
                  CONTENTS, READONLY, DEBUGGING
  8 .debug_frame  00000240  00000000  00000000  00003a0c  2**2
                  CONTENTS, READONLY, DEBUGGING
  9 .debug_str    000005fd  00000000  00000000  00003c4c  2**0
                  CONTENTS, READONLY, DEBUGGING
 10 .debug_loc    000009fb  00000000  00000000  00004249  2**0
                  CONTENTS, READONLY, DEBUGGING
 11 .debug_ranges 000000e8  00000000  00000000  00004c44  2**0
                  CONTENTS, READONLY, DEBUGGING

Disassembly of section .text:

00000000 <__vectors>:
   0:	0c 94 2a 00 	jmp	0x54	; 0x54 <__ctors_end>
   4:	0c 94 3f 00 	jmp	0x7e	; 0x7e <__bad_interrupt>
   8:	0c 94 3f 00 	jmp	0x7e	; 0x7e <__bad_interrupt>
   c:	0c 94 3f 00 	jmp	0x7e	; 0x7e <__bad_interrupt>
  10:	0c 94 3f 00 	jmp	0x7e	; 0x7e <__bad_interrupt>
  14:	0c 94 3f 00 	jmp	0x7e	; 0x7e <__bad_interrupt>
  18:	0c 94 3f 00 	jmp	0x7e	; 0x7e <__bad_interrupt>
  1c:	0c 94 3f 00 	jmp	0x7e	; 0x7e <__bad_interrupt>
  20:	0c 94 3f 00 	jmp	0x7e	; 0x7e <__bad_interrupt>
  24:	0c 94 3f 00 	jmp	0x7e	; 0x7e <__bad_interrupt>
  28:	0c 94 3f 00 	jmp	0x7e	; 0x7e <__bad_interrupt>
  2c:	0c 94 3f 00 	jmp	0x7e	; 0x7e <__bad_interrupt>
  30:	0c 94 3f 00 	jmp	0x7e	; 0x7e <__bad_interrupt>
  34:	0c 94 3f 00 	jmp	0x7e	; 0x7e <__bad_interrupt>
  38:	0c 94 3f 00 	jmp	0x7e	; 0x7e <__bad_interrupt>
  3c:	0c 94 3f 00 	jmp	0x7e	; 0x7e <__bad_interrupt>
  40:	0c 94 3f 00 	jmp	0x7e	; 0x7e <__bad_interrupt>
  44:	0c 94 3f 00 	jmp	0x7e	; 0x7e <__bad_interrupt>
  48:	0c 94 3f 00 	jmp	0x7e	; 0x7e <__bad_interrupt>
  4c:	0c 94 3f 00 	jmp	0x7e	; 0x7e <__bad_interrupt>
  50:	0c 94 3f 00 	jmp	0x7e	; 0x7e <__bad_interrupt>

00000054 <__ctors_end>:
  54:	11 24       	eor	r1, r1
  56:	1f be       	out	0x3f, r1	; 63
  58:	cf e5       	ldi	r28, 0x5F	; 95
  5a:	d8 e0       	ldi	r29, 0x08	; 8
  5c:	de bf       	out	0x3e, r29	; 62
  5e:	cd bf       	out	0x3d, r28	; 61

00000060 <__do_copy_data>:
  60:	10 e0       	ldi	r17, 0x00	; 0
  62:	a0 e6       	ldi	r26, 0x60	; 96
  64:	b0 e0       	ldi	r27, 0x00	; 0
  66:	e2 ea       	ldi	r30, 0xA2	; 162
  68:	f6 e0       	ldi	r31, 0x06	; 6
  6a:	02 c0       	rjmp	.+4      	; 0x70 <__do_copy_data+0x10>
  6c:	05 90       	lpm	r0, Z+
  6e:	0d 92       	st	X+, r0
  70:	a6 3b       	cpi	r26, 0xB6	; 182
  72:	b1 07       	cpc	r27, r17
  74:	d9 f7       	brne	.-10     	; 0x6c <__do_copy_data+0xc>
  76:	0e 94 08 02 	call	0x410	; 0x410 <main>
  7a:	0c 94 4f 03 	jmp	0x69e	; 0x69e <_exit>

0000007e <__bad_interrupt>:
  7e:	0c 94 00 00 	jmp	0	; 0x0 <__vectors>

00000082 <DIO_SetPin_Direction>:

#include "DIO.h"

void DIO_SetPin_Direction(DIO_Port port, DIO_Pin pin, DIO_Direction direction)
{
	switch (direction)
  82:	44 23       	and	r20, r20
  84:	19 f0       	breq	.+6      	; 0x8c <DIO_SetPin_Direction+0xa>
  86:	41 30       	cpi	r20, 0x01	; 1
  88:	c9 f1       	breq	.+114    	; 0xfc <DIO_SetPin_Direction+0x7a>
  8a:	08 95       	ret
	{
		case DIO_INPUT:
		switch (port)
  8c:	81 30       	cpi	r24, 0x01	; 1
  8e:	91 f0       	breq	.+36     	; 0xb4 <DIO_SetPin_Direction+0x32>
  90:	28 f0       	brcs	.+10     	; 0x9c <DIO_SetPin_Direction+0x1a>
  92:	82 30       	cpi	r24, 0x02	; 2
  94:	d9 f0       	breq	.+54     	; 0xcc <DIO_SetPin_Direction+0x4a>
  96:	83 30       	cpi	r24, 0x03	; 3
  98:	29 f1       	breq	.+74     	; 0xe4 <DIO_SetPin_Direction+0x62>
  9a:	08 95       	ret
		{
			case DIO_PORTA:
			CLR_BIT(DDRA, pin);
  9c:	2a b3       	in	r18, 0x1a	; 26
  9e:	81 e0       	ldi	r24, 0x01	; 1
  a0:	90 e0       	ldi	r25, 0x00	; 0
  a2:	02 c0       	rjmp	.+4      	; 0xa8 <DIO_SetPin_Direction+0x26>
  a4:	88 0f       	add	r24, r24
  a6:	99 1f       	adc	r25, r25
  a8:	6a 95       	dec	r22
  aa:	e2 f7       	brpl	.-8      	; 0xa4 <DIO_SetPin_Direction+0x22>
  ac:	80 95       	com	r24
  ae:	82 23       	and	r24, r18
  b0:	8a bb       	out	0x1a, r24	; 26
			break;
  b2:	08 95       	ret
			case DIO_PORTB:
			CLR_BIT(DDRB, pin);
  b4:	27 b3       	in	r18, 0x17	; 23
  b6:	81 e0       	ldi	r24, 0x01	; 1
  b8:	90 e0       	ldi	r25, 0x00	; 0
  ba:	02 c0       	rjmp	.+4      	; 0xc0 <DIO_SetPin_Direction+0x3e>
  bc:	88 0f       	add	r24, r24
  be:	99 1f       	adc	r25, r25
  c0:	6a 95       	dec	r22
  c2:	e2 f7       	brpl	.-8      	; 0xbc <DIO_SetPin_Direction+0x3a>
  c4:	80 95       	com	r24
  c6:	82 23       	and	r24, r18
  c8:	87 bb       	out	0x17, r24	; 23
			break;
  ca:	08 95       	ret
			case DIO_PORTC:
			CLR_BIT(DDRC, pin);
  cc:	24 b3       	in	r18, 0x14	; 20
  ce:	81 e0       	ldi	r24, 0x01	; 1
  d0:	90 e0       	ldi	r25, 0x00	; 0
  d2:	02 c0       	rjmp	.+4      	; 0xd8 <DIO_SetPin_Direction+0x56>
  d4:	88 0f       	add	r24, r24
  d6:	99 1f       	adc	r25, r25
  d8:	6a 95       	dec	r22
  da:	e2 f7       	brpl	.-8      	; 0xd4 <DIO_SetPin_Direction+0x52>
  dc:	80 95       	com	r24
  de:	82 23       	and	r24, r18
  e0:	84 bb       	out	0x14, r24	; 20
			break;
  e2:	08 95       	ret
			case DIO_PORTD:
			CLR_BIT(DDRD, pin);
  e4:	21 b3       	in	r18, 0x11	; 17
  e6:	81 e0       	ldi	r24, 0x01	; 1
  e8:	90 e0       	ldi	r25, 0x00	; 0
  ea:	02 c0       	rjmp	.+4      	; 0xf0 <DIO_SetPin_Direction+0x6e>
  ec:	88 0f       	add	r24, r24
  ee:	99 1f       	adc	r25, r25
  f0:	6a 95       	dec	r22
  f2:	e2 f7       	brpl	.-8      	; 0xec <DIO_SetPin_Direction+0x6a>
  f4:	80 95       	com	r24
  f6:	82 23       	and	r24, r18
  f8:	81 bb       	out	0x11, r24	; 17
			break;
  fa:	08 95       	ret
		}
		break;
		case DIO_OUTPUT:
		switch (port)
  fc:	81 30       	cpi	r24, 0x01	; 1
  fe:	89 f0       	breq	.+34     	; 0x122 <DIO_SetPin_Direction+0xa0>
 100:	28 f0       	brcs	.+10     	; 0x10c <DIO_SetPin_Direction+0x8a>
 102:	82 30       	cpi	r24, 0x02	; 2
 104:	c9 f0       	breq	.+50     	; 0x138 <DIO_SetPin_Direction+0xb6>
 106:	83 30       	cpi	r24, 0x03	; 3
 108:	11 f1       	breq	.+68     	; 0x14e <DIO_SetPin_Direction+0xcc>
 10a:	08 95       	ret
		{
			case DIO_PORTA:
			SET_BIT(DDRA, pin);
 10c:	2a b3       	in	r18, 0x1a	; 26
 10e:	81 e0       	ldi	r24, 0x01	; 1
 110:	90 e0       	ldi	r25, 0x00	; 0
 112:	02 c0       	rjmp	.+4      	; 0x118 <DIO_SetPin_Direction+0x96>
 114:	88 0f       	add	r24, r24
 116:	99 1f       	adc	r25, r25
 118:	6a 95       	dec	r22
 11a:	e2 f7       	brpl	.-8      	; 0x114 <DIO_SetPin_Direction+0x92>
 11c:	82 2b       	or	r24, r18
 11e:	8a bb       	out	0x1a, r24	; 26
			break;
 120:	08 95       	ret
			case DIO_PORTB:
			SET_BIT(DDRB, pin);
 122:	27 b3       	in	r18, 0x17	; 23
 124:	81 e0       	ldi	r24, 0x01	; 1
 126:	90 e0       	ldi	r25, 0x00	; 0
 128:	02 c0       	rjmp	.+4      	; 0x12e <DIO_SetPin_Direction+0xac>
 12a:	88 0f       	add	r24, r24
 12c:	99 1f       	adc	r25, r25
 12e:	6a 95       	dec	r22
 130:	e2 f7       	brpl	.-8      	; 0x12a <DIO_SetPin_Direction+0xa8>
 132:	82 2b       	or	r24, r18
 134:	87 bb       	out	0x17, r24	; 23
			break;
 136:	08 95       	ret
			case DIO_PORTC:
			SET_BIT(DDRC, pin);
 138:	24 b3       	in	r18, 0x14	; 20
 13a:	81 e0       	ldi	r24, 0x01	; 1
 13c:	90 e0       	ldi	r25, 0x00	; 0
 13e:	02 c0       	rjmp	.+4      	; 0x144 <DIO_SetPin_Direction+0xc2>
 140:	88 0f       	add	r24, r24
 142:	99 1f       	adc	r25, r25
 144:	6a 95       	dec	r22
 146:	e2 f7       	brpl	.-8      	; 0x140 <DIO_SetPin_Direction+0xbe>
 148:	82 2b       	or	r24, r18
 14a:	84 bb       	out	0x14, r24	; 20
			break;
 14c:	08 95       	ret
			case DIO_PORTD:
			SET_BIT(DDRD, pin);
 14e:	21 b3       	in	r18, 0x11	; 17
 150:	81 e0       	ldi	r24, 0x01	; 1
 152:	90 e0       	ldi	r25, 0x00	; 0
 154:	02 c0       	rjmp	.+4      	; 0x15a <DIO_SetPin_Direction+0xd8>
 156:	88 0f       	add	r24, r24
 158:	99 1f       	adc	r25, r25
 15a:	6a 95       	dec	r22
 15c:	e2 f7       	brpl	.-8      	; 0x156 <DIO_SetPin_Direction+0xd4>
 15e:	82 2b       	or	r24, r18
 160:	81 bb       	out	0x11, r24	; 17
 162:	08 95       	ret

00000164 <DIO_SetPin_State>:
		break;
	}
}
void DIO_SetPin_State(DIO_Port port, DIO_Pin pin, DIO_State state)
{
	switch (state)
 164:	44 23       	and	r20, r20
 166:	19 f0       	breq	.+6      	; 0x16e <DIO_SetPin_State+0xa>
 168:	41 30       	cpi	r20, 0x01	; 1
 16a:	c9 f1       	breq	.+114    	; 0x1de <DIO_SetPin_State+0x7a>
 16c:	08 95       	ret
	{
		case DIO_LOW:
		switch (port)
 16e:	81 30       	cpi	r24, 0x01	; 1
 170:	91 f0       	breq	.+36     	; 0x196 <DIO_SetPin_State+0x32>
 172:	28 f0       	brcs	.+10     	; 0x17e <DIO_SetPin_State+0x1a>
 174:	82 30       	cpi	r24, 0x02	; 2
 176:	d9 f0       	breq	.+54     	; 0x1ae <DIO_SetPin_State+0x4a>
 178:	83 30       	cpi	r24, 0x03	; 3
 17a:	29 f1       	breq	.+74     	; 0x1c6 <DIO_SetPin_State+0x62>
 17c:	08 95       	ret
		{
			case DIO_PORTA:
			CLR_BIT(PORTA, pin);
 17e:	2b b3       	in	r18, 0x1b	; 27
 180:	81 e0       	ldi	r24, 0x01	; 1
 182:	90 e0       	ldi	r25, 0x00	; 0
 184:	02 c0       	rjmp	.+4      	; 0x18a <DIO_SetPin_State+0x26>
 186:	88 0f       	add	r24, r24
 188:	99 1f       	adc	r25, r25
 18a:	6a 95       	dec	r22
 18c:	e2 f7       	brpl	.-8      	; 0x186 <DIO_SetPin_State+0x22>
 18e:	80 95       	com	r24
 190:	82 23       	and	r24, r18
 192:	8b bb       	out	0x1b, r24	; 27
			break;
 194:	08 95       	ret
			case DIO_PORTB:
			CLR_BIT(PORTB, pin);
 196:	28 b3       	in	r18, 0x18	; 24
 198:	81 e0       	ldi	r24, 0x01	; 1
 19a:	90 e0       	ldi	r25, 0x00	; 0
 19c:	02 c0       	rjmp	.+4      	; 0x1a2 <DIO_SetPin_State+0x3e>
 19e:	88 0f       	add	r24, r24
 1a0:	99 1f       	adc	r25, r25
 1a2:	6a 95       	dec	r22
 1a4:	e2 f7       	brpl	.-8      	; 0x19e <DIO_SetPin_State+0x3a>
 1a6:	80 95       	com	r24
 1a8:	82 23       	and	r24, r18
 1aa:	88 bb       	out	0x18, r24	; 24
			break;
 1ac:	08 95       	ret
			case DIO_PORTC:
			CLR_BIT(PORTC, pin);
 1ae:	25 b3       	in	r18, 0x15	; 21
 1b0:	81 e0       	ldi	r24, 0x01	; 1
 1b2:	90 e0       	ldi	r25, 0x00	; 0
 1b4:	02 c0       	rjmp	.+4      	; 0x1ba <DIO_SetPin_State+0x56>
 1b6:	88 0f       	add	r24, r24
 1b8:	99 1f       	adc	r25, r25
 1ba:	6a 95       	dec	r22
 1bc:	e2 f7       	brpl	.-8      	; 0x1b6 <DIO_SetPin_State+0x52>
 1be:	80 95       	com	r24
 1c0:	82 23       	and	r24, r18
 1c2:	85 bb       	out	0x15, r24	; 21
			break;
 1c4:	08 95       	ret
			case DIO_PORTD:
			CLR_BIT(PORTD, pin);
 1c6:	22 b3       	in	r18, 0x12	; 18
 1c8:	81 e0       	ldi	r24, 0x01	; 1
 1ca:	90 e0       	ldi	r25, 0x00	; 0
 1cc:	02 c0       	rjmp	.+4      	; 0x1d2 <DIO_SetPin_State+0x6e>
 1ce:	88 0f       	add	r24, r24
 1d0:	99 1f       	adc	r25, r25
 1d2:	6a 95       	dec	r22
 1d4:	e2 f7       	brpl	.-8      	; 0x1ce <DIO_SetPin_State+0x6a>
 1d6:	80 95       	com	r24
 1d8:	82 23       	and	r24, r18
 1da:	82 bb       	out	0x12, r24	; 18
			break;
 1dc:	08 95       	ret
		}
		break;
		case DIO_HIGH:
		switch (port)
 1de:	81 30       	cpi	r24, 0x01	; 1
 1e0:	89 f0       	breq	.+34     	; 0x204 <DIO_SetPin_State+0xa0>
 1e2:	28 f0       	brcs	.+10     	; 0x1ee <DIO_SetPin_State+0x8a>
 1e4:	82 30       	cpi	r24, 0x02	; 2
 1e6:	c9 f0       	breq	.+50     	; 0x21a <DIO_SetPin_State+0xb6>
 1e8:	83 30       	cpi	r24, 0x03	; 3
 1ea:	11 f1       	breq	.+68     	; 0x230 <DIO_SetPin_State+0xcc>
 1ec:	08 95       	ret
		{
			case DIO_PORTA:
			SET_BIT(PORTA, pin);
 1ee:	2b b3       	in	r18, 0x1b	; 27
 1f0:	81 e0       	ldi	r24, 0x01	; 1
 1f2:	90 e0       	ldi	r25, 0x00	; 0
 1f4:	02 c0       	rjmp	.+4      	; 0x1fa <DIO_SetPin_State+0x96>
 1f6:	88 0f       	add	r24, r24
 1f8:	99 1f       	adc	r25, r25
 1fa:	6a 95       	dec	r22
 1fc:	e2 f7       	brpl	.-8      	; 0x1f6 <DIO_SetPin_State+0x92>
 1fe:	82 2b       	or	r24, r18
 200:	8b bb       	out	0x1b, r24	; 27
			break;
 202:	08 95       	ret
			case DIO_PORTB:
			SET_BIT(PORTB, pin);
 204:	28 b3       	in	r18, 0x18	; 24
 206:	81 e0       	ldi	r24, 0x01	; 1
 208:	90 e0       	ldi	r25, 0x00	; 0
 20a:	02 c0       	rjmp	.+4      	; 0x210 <DIO_SetPin_State+0xac>
 20c:	88 0f       	add	r24, r24
 20e:	99 1f       	adc	r25, r25
 210:	6a 95       	dec	r22
 212:	e2 f7       	brpl	.-8      	; 0x20c <DIO_SetPin_State+0xa8>
 214:	82 2b       	or	r24, r18
 216:	88 bb       	out	0x18, r24	; 24
			break;
 218:	08 95       	ret
			case DIO_PORTC:
			SET_BIT(PORTC, pin);
 21a:	25 b3       	in	r18, 0x15	; 21
 21c:	81 e0       	ldi	r24, 0x01	; 1
 21e:	90 e0       	ldi	r25, 0x00	; 0
 220:	02 c0       	rjmp	.+4      	; 0x226 <DIO_SetPin_State+0xc2>
 222:	88 0f       	add	r24, r24
 224:	99 1f       	adc	r25, r25
 226:	6a 95       	dec	r22
 228:	e2 f7       	brpl	.-8      	; 0x222 <DIO_SetPin_State+0xbe>
 22a:	82 2b       	or	r24, r18
 22c:	85 bb       	out	0x15, r24	; 21
			break;
 22e:	08 95       	ret
			case DIO_PORTD:
			SET_BIT(PORTD, pin);
 230:	22 b3       	in	r18, 0x12	; 18
 232:	81 e0       	ldi	r24, 0x01	; 1
 234:	90 e0       	ldi	r25, 0x00	; 0
 236:	02 c0       	rjmp	.+4      	; 0x23c <DIO_SetPin_State+0xd8>
 238:	88 0f       	add	r24, r24
 23a:	99 1f       	adc	r25, r25
 23c:	6a 95       	dec	r22
 23e:	e2 f7       	brpl	.-8      	; 0x238 <DIO_SetPin_State+0xd4>
 240:	82 2b       	or	r24, r18
 242:	82 bb       	out	0x12, r24	; 18
 244:	08 95       	ret

00000246 <LCD_WRITE_CMD>:
void LCD_WRITE_NBR(uint32_t numbr)
{
	uint8_t num[10];
	ltoa(numbr, (uint8_t*)num, 10);//Long to Ascii
	LCD_WRITE_STR(num);
}
 246:	cf 93       	push	r28
 248:	c8 2f       	mov	r28, r24
 24a:	40 e0       	ldi	r20, 0x00	; 0
 24c:	61 e0       	ldi	r22, 0x01	; 1
 24e:	81 e0       	ldi	r24, 0x01	; 1
 250:	0e 94 b2 00 	call	0x164	; 0x164 <DIO_SetPin_State>
 254:	40 e0       	ldi	r20, 0x00	; 0
 256:	62 e0       	ldi	r22, 0x02	; 2
 258:	81 e0       	ldi	r24, 0x01	; 1
 25a:	0e 94 b2 00 	call	0x164	; 0x164 <DIO_SetPin_State>
 25e:	40 e0       	ldi	r20, 0x00	; 0
 260:	63 e0       	ldi	r22, 0x03	; 3
 262:	81 e0       	ldi	r24, 0x01	; 1
 264:	0e 94 b2 00 	call	0x164	; 0x164 <DIO_SetPin_State>
 268:	8b b3       	in	r24, 0x1b	; 27
 26a:	9c 2f       	mov	r25, r28
 26c:	90 7f       	andi	r25, 0xF0	; 240
 26e:	8f 70       	andi	r24, 0x0F	; 15
 270:	89 2b       	or	r24, r25
 272:	8b bb       	out	0x1b, r24	; 27
 274:	41 e0       	ldi	r20, 0x01	; 1
 276:	63 e0       	ldi	r22, 0x03	; 3
 278:	81 e0       	ldi	r24, 0x01	; 1
 27a:	0e 94 b2 00 	call	0x164	; 0x164 <DIO_SetPin_State>
 27e:	8f e9       	ldi	r24, 0x9F	; 159
 280:	9f e0       	ldi	r25, 0x0F	; 15
 282:	01 97       	sbiw	r24, 0x01	; 1
 284:	f1 f7       	brne	.-4      	; 0x282 <LCD_WRITE_CMD+0x3c>
 286:	00 c0       	rjmp	.+0      	; 0x288 <LCD_WRITE_CMD+0x42>
 288:	00 00       	nop
 28a:	40 e0       	ldi	r20, 0x00	; 0
 28c:	63 e0       	ldi	r22, 0x03	; 3
 28e:	81 e0       	ldi	r24, 0x01	; 1
 290:	0e 94 b2 00 	call	0x164	; 0x164 <DIO_SetPin_State>
 294:	2b b3       	in	r18, 0x1b	; 27
 296:	30 e1       	ldi	r19, 0x10	; 16
 298:	c3 9f       	mul	r28, r19
 29a:	c0 01       	movw	r24, r0
 29c:	11 24       	eor	r1, r1
 29e:	92 2f       	mov	r25, r18
 2a0:	9f 70       	andi	r25, 0x0F	; 15
 2a2:	89 2b       	or	r24, r25
 2a4:	8b bb       	out	0x1b, r24	; 27
 2a6:	41 e0       	ldi	r20, 0x01	; 1
 2a8:	63 e0       	ldi	r22, 0x03	; 3
 2aa:	81 e0       	ldi	r24, 0x01	; 1
 2ac:	0e 94 b2 00 	call	0x164	; 0x164 <DIO_SetPin_State>
 2b0:	8f e9       	ldi	r24, 0x9F	; 159
 2b2:	9f e0       	ldi	r25, 0x0F	; 15
 2b4:	01 97       	sbiw	r24, 0x01	; 1
 2b6:	f1 f7       	brne	.-4      	; 0x2b4 <LCD_WRITE_CMD+0x6e>
 2b8:	00 c0       	rjmp	.+0      	; 0x2ba <LCD_WRITE_CMD+0x74>
 2ba:	00 00       	nop
 2bc:	40 e0       	ldi	r20, 0x00	; 0
 2be:	63 e0       	ldi	r22, 0x03	; 3
 2c0:	81 e0       	ldi	r24, 0x01	; 1
 2c2:	0e 94 b2 00 	call	0x164	; 0x164 <DIO_SetPin_State>
 2c6:	8f e3       	ldi	r24, 0x3F	; 63
 2c8:	9f e1       	ldi	r25, 0x1F	; 31
 2ca:	01 97       	sbiw	r24, 0x01	; 1
 2cc:	f1 f7       	brne	.-4      	; 0x2ca <LCD_WRITE_CMD+0x84>
 2ce:	00 c0       	rjmp	.+0      	; 0x2d0 <LCD_WRITE_CMD+0x8a>
 2d0:	00 00       	nop
 2d2:	cf 91       	pop	r28
 2d4:	08 95       	ret

000002d6 <LCD_Init>:
 2d6:	41 e0       	ldi	r20, 0x01	; 1
 2d8:	61 e0       	ldi	r22, 0x01	; 1
 2da:	81 e0       	ldi	r24, 0x01	; 1
 2dc:	0e 94 41 00 	call	0x82	; 0x82 <DIO_SetPin_Direction>
 2e0:	41 e0       	ldi	r20, 0x01	; 1
 2e2:	62 e0       	ldi	r22, 0x02	; 2
 2e4:	81 e0       	ldi	r24, 0x01	; 1
 2e6:	0e 94 41 00 	call	0x82	; 0x82 <DIO_SetPin_Direction>
 2ea:	41 e0       	ldi	r20, 0x01	; 1
 2ec:	63 e0       	ldi	r22, 0x03	; 3
 2ee:	81 e0       	ldi	r24, 0x01	; 1
 2f0:	0e 94 41 00 	call	0x82	; 0x82 <DIO_SetPin_Direction>
 2f4:	41 e0       	ldi	r20, 0x01	; 1
 2f6:	64 e0       	ldi	r22, 0x04	; 4
 2f8:	80 e0       	ldi	r24, 0x00	; 0
 2fa:	0e 94 41 00 	call	0x82	; 0x82 <DIO_SetPin_Direction>
 2fe:	41 e0       	ldi	r20, 0x01	; 1
 300:	65 e0       	ldi	r22, 0x05	; 5
 302:	80 e0       	ldi	r24, 0x00	; 0
 304:	0e 94 41 00 	call	0x82	; 0x82 <DIO_SetPin_Direction>
 308:	41 e0       	ldi	r20, 0x01	; 1
 30a:	66 e0       	ldi	r22, 0x06	; 6
 30c:	80 e0       	ldi	r24, 0x00	; 0
 30e:	0e 94 41 00 	call	0x82	; 0x82 <DIO_SetPin_Direction>
 312:	41 e0       	ldi	r20, 0x01	; 1
 314:	67 e0       	ldi	r22, 0x07	; 7
 316:	80 e0       	ldi	r24, 0x00	; 0
 318:	0e 94 41 00 	call	0x82	; 0x82 <DIO_SetPin_Direction>
 31c:	2f ef       	ldi	r18, 0xFF	; 255
 31e:	81 ee       	ldi	r24, 0xE1	; 225
 320:	94 e0       	ldi	r25, 0x04	; 4
 322:	21 50       	subi	r18, 0x01	; 1
 324:	80 40       	sbci	r24, 0x00	; 0
 326:	90 40       	sbci	r25, 0x00	; 0
 328:	e1 f7       	brne	.-8      	; 0x322 <LCD_Init+0x4c>
 32a:	00 c0       	rjmp	.+0      	; 0x32c <LCD_Init+0x56>
 32c:	00 00       	nop
 32e:	82 e0       	ldi	r24, 0x02	; 2
 330:	0e 94 23 01 	call	0x246	; 0x246 <LCD_WRITE_CMD>
 334:	83 e3       	ldi	r24, 0x33	; 51
 336:	0e 94 23 01 	call	0x246	; 0x246 <LCD_WRITE_CMD>
 33a:	82 e3       	ldi	r24, 0x32	; 50
 33c:	0e 94 23 01 	call	0x246	; 0x246 <LCD_WRITE_CMD>
 340:	88 e2       	ldi	r24, 0x28	; 40
 342:	0e 94 23 01 	call	0x246	; 0x246 <LCD_WRITE_CMD>
 346:	8c e0       	ldi	r24, 0x0C	; 12
 348:	0e 94 23 01 	call	0x246	; 0x246 <LCD_WRITE_CMD>
 34c:	81 e0       	ldi	r24, 0x01	; 1
 34e:	0e 94 23 01 	call	0x246	; 0x246 <LCD_WRITE_CMD>
 352:	86 e0       	ldi	r24, 0x06	; 6
 354:	0e 94 23 01 	call	0x246	; 0x246 <LCD_WRITE_CMD>
 358:	08 95       	ret

0000035a <LCD_WRITE_DTA>:
 35a:	cf 93       	push	r28
 35c:	c8 2f       	mov	r28, r24
 35e:	41 e0       	ldi	r20, 0x01	; 1
 360:	61 e0       	ldi	r22, 0x01	; 1
 362:	81 e0       	ldi	r24, 0x01	; 1
 364:	0e 94 b2 00 	call	0x164	; 0x164 <DIO_SetPin_State>
 368:	40 e0       	ldi	r20, 0x00	; 0
 36a:	62 e0       	ldi	r22, 0x02	; 2
 36c:	81 e0       	ldi	r24, 0x01	; 1
 36e:	0e 94 b2 00 	call	0x164	; 0x164 <DIO_SetPin_State>
 372:	40 e0       	ldi	r20, 0x00	; 0
 374:	63 e0       	ldi	r22, 0x03	; 3
 376:	81 e0       	ldi	r24, 0x01	; 1
 378:	0e 94 b2 00 	call	0x164	; 0x164 <DIO_SetPin_State>
 37c:	8b b3       	in	r24, 0x1b	; 27
 37e:	9c 2f       	mov	r25, r28
 380:	90 7f       	andi	r25, 0xF0	; 240
 382:	8f 70       	andi	r24, 0x0F	; 15
 384:	89 2b       	or	r24, r25
 386:	8b bb       	out	0x1b, r24	; 27
 388:	41 e0       	ldi	r20, 0x01	; 1
 38a:	63 e0       	ldi	r22, 0x03	; 3
 38c:	81 e0       	ldi	r24, 0x01	; 1
 38e:	0e 94 b2 00 	call	0x164	; 0x164 <DIO_SetPin_State>
 392:	8f e9       	ldi	r24, 0x9F	; 159
 394:	9f e0       	ldi	r25, 0x0F	; 15
 396:	01 97       	sbiw	r24, 0x01	; 1
 398:	f1 f7       	brne	.-4      	; 0x396 <LCD_WRITE_DTA+0x3c>
 39a:	00 c0       	rjmp	.+0      	; 0x39c <LCD_WRITE_DTA+0x42>
 39c:	00 00       	nop
 39e:	40 e0       	ldi	r20, 0x00	; 0
 3a0:	63 e0       	ldi	r22, 0x03	; 3
 3a2:	81 e0       	ldi	r24, 0x01	; 1
 3a4:	0e 94 b2 00 	call	0x164	; 0x164 <DIO_SetPin_State>
 3a8:	2b b3       	in	r18, 0x1b	; 27
 3aa:	30 e1       	ldi	r19, 0x10	; 16
 3ac:	c3 9f       	mul	r28, r19
 3ae:	c0 01       	movw	r24, r0
 3b0:	11 24       	eor	r1, r1
 3b2:	92 2f       	mov	r25, r18
 3b4:	9f 70       	andi	r25, 0x0F	; 15
 3b6:	89 2b       	or	r24, r25
 3b8:	8b bb       	out	0x1b, r24	; 27
 3ba:	41 e0       	ldi	r20, 0x01	; 1
 3bc:	63 e0       	ldi	r22, 0x03	; 3
 3be:	81 e0       	ldi	r24, 0x01	; 1
 3c0:	0e 94 b2 00 	call	0x164	; 0x164 <DIO_SetPin_State>
 3c4:	8f e9       	ldi	r24, 0x9F	; 159
 3c6:	9f e0       	ldi	r25, 0x0F	; 15
 3c8:	01 97       	sbiw	r24, 0x01	; 1
 3ca:	f1 f7       	brne	.-4      	; 0x3c8 <LCD_WRITE_DTA+0x6e>
 3cc:	00 c0       	rjmp	.+0      	; 0x3ce <LCD_WRITE_DTA+0x74>
 3ce:	00 00       	nop
 3d0:	40 e0       	ldi	r20, 0x00	; 0
 3d2:	63 e0       	ldi	r22, 0x03	; 3
 3d4:	81 e0       	ldi	r24, 0x01	; 1
 3d6:	0e 94 b2 00 	call	0x164	; 0x164 <DIO_SetPin_State>
 3da:	8f e3       	ldi	r24, 0x3F	; 63
 3dc:	9f e1       	ldi	r25, 0x1F	; 31
 3de:	01 97       	sbiw	r24, 0x01	; 1
 3e0:	f1 f7       	brne	.-4      	; 0x3de <LCD_WRITE_DTA+0x84>
 3e2:	00 c0       	rjmp	.+0      	; 0x3e4 <LCD_WRITE_DTA+0x8a>
 3e4:	00 00       	nop
 3e6:	cf 91       	pop	r28
 3e8:	08 95       	ret

000003ea <LCD_WRITE_STR>:
 3ea:	cf 93       	push	r28
 3ec:	df 93       	push	r29
 3ee:	ec 01       	movw	r28, r24
 3f0:	88 81       	ld	r24, Y
 3f2:	88 23       	and	r24, r24
 3f4:	31 f0       	breq	.+12     	; 0x402 <__LOCK_REGION_LENGTH__+0x2>
 3f6:	21 96       	adiw	r28, 0x01	; 1
 3f8:	0e 94 ad 01 	call	0x35a	; 0x35a <LCD_WRITE_DTA>
 3fc:	89 91       	ld	r24, Y+
 3fe:	81 11       	cpse	r24, r1
 400:	fb cf       	rjmp	.-10     	; 0x3f8 <LCD_WRITE_STR+0xe>
 402:	df 91       	pop	r29
 404:	cf 91       	pop	r28
 406:	08 95       	ret

00000408 <LCD_CLEAR>:
void LCD_CLEAR(void)/*Clear data display on screen*/
{
	LCD_WRITE_CMD(0x01);
 408:	81 e0       	ldi	r24, 0x01	; 1
 40a:	0e 94 23 01 	call	0x246	; 0x246 <LCD_WRITE_CMD>
 40e:	08 95       	ret

00000410 <main>:
#include "Used_functions.h"



int main(void)
{
 410:	cf 93       	push	r28
 412:	df 93       	push	r29
 414:	cd b7       	in	r28, 0x3d	; 61
 416:	de b7       	in	r29, 0x3e	; 62
 418:	2a 97       	sbiw	r28, 0x0a	; 10
 41a:	0f b6       	in	r0, 0x3f	; 63
 41c:	f8 94       	cli
 41e:	de bf       	out	0x3e, r29	; 62
 420:	0f be       	out	0x3f, r0	; 63
 422:	cd bf       	out	0x3d, r28	; 61
	LCD_Init();
 424:	0e 94 6b 01 	call	0x2d6	; 0x2d6 <LCD_Init>
	LCD_CLEAR();	
 428:	0e 94 04 02 	call	0x408	; 0x408 <LCD_CLEAR>
	SPI_Master_Init();
 42c:	0e 94 da 02 	call	0x5b4	; 0x5b4 <SPI_Master_Init>
	SPI_Slave();
 430:	0e 94 e5 02 	call	0x5ca	; 0x5ca <SPI_Slave>
	UART_Init();
 434:	0e 94 e7 02 	call	0x5ce	; 0x5ce <UART_Init>
	uint8_t data2_off=6;
	uint8_t data_invalid=7;
	uint8_t dataReceived;
	
	uint8_t arr[10];
	LCD_CLEAR();
 438:	0e 94 04 02 	call	0x408	; 0x408 <LCD_CLEAR>
	LCD_WRITE_STR("Master");
 43c:	80 e6       	ldi	r24, 0x60	; 96
 43e:	90 e0       	ldi	r25, 0x00	; 0
 440:	0e 94 f5 01 	call	0x3ea	; 0x3ea <LCD_WRITE_STR>
	#else
		//round up by default
		__ticks_dc = (uint32_t)(ceil(fabs(__tmp)));
	#endif

	__builtin_avr_delay_cycles(__ticks_dc);
 444:	2f ef       	ldi	r18, 0xFF	; 255
 446:	83 ed       	ldi	r24, 0xD3	; 211
 448:	90 e3       	ldi	r25, 0x30	; 48
 44a:	21 50       	subi	r18, 0x01	; 1
 44c:	80 40       	sbci	r24, 0x00	; 0
 44e:	90 40       	sbci	r25, 0x00	; 0
 450:	e1 f7       	brne	.-8      	; 0x44a <main+0x3a>
 452:	00 c0       	rjmp	.+0      	; 0x454 <main+0x44>
 454:	00 00       	nop
	_delay_ms(1000);
	LCD_CLEAR();
 456:	0e 94 04 02 	call	0x408	; 0x408 <LCD_CLEAR>
	
	
    while (1) 
    {		
		
		UART_Receive_String(arr);
 45a:	ce 01       	movw	r24, r28
 45c:	01 96       	adiw	r24, 0x01	; 1
 45e:	0e 94 f3 02 	call	0x5e6	; 0x5e6 <UART_Receive_String>
 462:	8f e3       	ldi	r24, 0x3F	; 63
 464:	9c e9       	ldi	r25, 0x9C	; 156
 466:	01 97       	sbiw	r24, 0x01	; 1
 468:	f1 f7       	brne	.-4      	; 0x466 <main+0x56>
 46a:	00 c0       	rjmp	.+0      	; 0x46c <main+0x5c>
 46c:	00 00       	nop
		_delay_ms(10);
		if (Compare_String(arr, "led0on"))
 46e:	67 e6       	ldi	r22, 0x67	; 103
 470:	70 e0       	ldi	r23, 0x00	; 0
 472:	ce 01       	movw	r24, r28
 474:	01 96       	adiw	r24, 0x01	; 1
 476:	0e 94 13 03 	call	0x626	; 0x626 <Compare_String>
 47a:	88 23       	and	r24, r24
 47c:	79 f0       	breq	.+30     	; 0x49c <main+0x8c>
		{
			SPI_Tx(data0_on);
 47e:	81 e0       	ldi	r24, 0x01	; 1
 480:	0e 94 e1 02 	call	0x5c2	; 0x5c2 <SPI_Tx>
			LCD_CLEAR();
 484:	0e 94 04 02 	call	0x408	; 0x408 <LCD_CLEAR>
			LCD_WRITE_STR("Data transmitted");
 488:	8e e6       	ldi	r24, 0x6E	; 110
 48a:	90 e0       	ldi	r25, 0x00	; 0
 48c:	0e 94 f5 01 	call	0x3ea	; 0x3ea <LCD_WRITE_STR>
			Clear_array(arr,10);
 490:	6a e0       	ldi	r22, 0x0A	; 10
 492:	ce 01       	movw	r24, r28
 494:	01 96       	adiw	r24, 0x01	; 1
 496:	0e 94 45 03 	call	0x68a	; 0x68a <Clear_array>
 49a:	df cf       	rjmp	.-66     	; 0x45a <main+0x4a>
		}
		else if (Compare_String(arr, "led0off"))
 49c:	6f e7       	ldi	r22, 0x7F	; 127
 49e:	70 e0       	ldi	r23, 0x00	; 0
 4a0:	ce 01       	movw	r24, r28
 4a2:	01 96       	adiw	r24, 0x01	; 1
 4a4:	0e 94 13 03 	call	0x626	; 0x626 <Compare_String>
 4a8:	88 23       	and	r24, r24
 4aa:	79 f0       	breq	.+30     	; 0x4ca <main+0xba>
		{
			SPI_Tx(data0_off);
 4ac:	82 e0       	ldi	r24, 0x02	; 2
 4ae:	0e 94 e1 02 	call	0x5c2	; 0x5c2 <SPI_Tx>
			LCD_CLEAR();
 4b2:	0e 94 04 02 	call	0x408	; 0x408 <LCD_CLEAR>
			LCD_WRITE_STR("Data transmitted");
 4b6:	8e e6       	ldi	r24, 0x6E	; 110
 4b8:	90 e0       	ldi	r25, 0x00	; 0
 4ba:	0e 94 f5 01 	call	0x3ea	; 0x3ea <LCD_WRITE_STR>
			Clear_array(arr,10);
 4be:	6a e0       	ldi	r22, 0x0A	; 10
 4c0:	ce 01       	movw	r24, r28
 4c2:	01 96       	adiw	r24, 0x01	; 1
 4c4:	0e 94 45 03 	call	0x68a	; 0x68a <Clear_array>
 4c8:	c8 cf       	rjmp	.-112    	; 0x45a <main+0x4a>
		}
		else if (Compare_String(arr, "led1on"))
 4ca:	67 e8       	ldi	r22, 0x87	; 135
 4cc:	70 e0       	ldi	r23, 0x00	; 0
 4ce:	ce 01       	movw	r24, r28
 4d0:	01 96       	adiw	r24, 0x01	; 1
 4d2:	0e 94 13 03 	call	0x626	; 0x626 <Compare_String>
 4d6:	88 23       	and	r24, r24
 4d8:	79 f0       	breq	.+30     	; 0x4f8 <main+0xe8>
		{
			SPI_Tx(data1_on);
 4da:	83 e0       	ldi	r24, 0x03	; 3
 4dc:	0e 94 e1 02 	call	0x5c2	; 0x5c2 <SPI_Tx>
			LCD_CLEAR();
 4e0:	0e 94 04 02 	call	0x408	; 0x408 <LCD_CLEAR>
			LCD_WRITE_STR("Data transmitted");
 4e4:	8e e6       	ldi	r24, 0x6E	; 110
 4e6:	90 e0       	ldi	r25, 0x00	; 0
 4e8:	0e 94 f5 01 	call	0x3ea	; 0x3ea <LCD_WRITE_STR>
			Clear_array(arr,10);
 4ec:	6a e0       	ldi	r22, 0x0A	; 10
 4ee:	ce 01       	movw	r24, r28
 4f0:	01 96       	adiw	r24, 0x01	; 1
 4f2:	0e 94 45 03 	call	0x68a	; 0x68a <Clear_array>
 4f6:	b1 cf       	rjmp	.-158    	; 0x45a <main+0x4a>
		}
		else if (Compare_String(arr, "led1off"))
 4f8:	6e e8       	ldi	r22, 0x8E	; 142
 4fa:	70 e0       	ldi	r23, 0x00	; 0
 4fc:	ce 01       	movw	r24, r28
 4fe:	01 96       	adiw	r24, 0x01	; 1
 500:	0e 94 13 03 	call	0x626	; 0x626 <Compare_String>
 504:	88 23       	and	r24, r24
 506:	79 f0       	breq	.+30     	; 0x526 <main+0x116>
		{
			SPI_Tx(data1_off);
 508:	84 e0       	ldi	r24, 0x04	; 4
 50a:	0e 94 e1 02 	call	0x5c2	; 0x5c2 <SPI_Tx>
			LCD_CLEAR();
 50e:	0e 94 04 02 	call	0x408	; 0x408 <LCD_CLEAR>
			LCD_WRITE_STR("Data transmitted");
 512:	8e e6       	ldi	r24, 0x6E	; 110
 514:	90 e0       	ldi	r25, 0x00	; 0
 516:	0e 94 f5 01 	call	0x3ea	; 0x3ea <LCD_WRITE_STR>
			Clear_array(arr,10);
 51a:	6a e0       	ldi	r22, 0x0A	; 10
 51c:	ce 01       	movw	r24, r28
 51e:	01 96       	adiw	r24, 0x01	; 1
 520:	0e 94 45 03 	call	0x68a	; 0x68a <Clear_array>
 524:	9a cf       	rjmp	.-204    	; 0x45a <main+0x4a>
		}
		else if (Compare_String(arr, "led2on"))
 526:	66 e9       	ldi	r22, 0x96	; 150
 528:	70 e0       	ldi	r23, 0x00	; 0
 52a:	ce 01       	movw	r24, r28
 52c:	01 96       	adiw	r24, 0x01	; 1
 52e:	0e 94 13 03 	call	0x626	; 0x626 <Compare_String>
 532:	88 23       	and	r24, r24
 534:	79 f0       	breq	.+30     	; 0x554 <main+0x144>
		{
			SPI_Tx(data2_on);
 536:	85 e0       	ldi	r24, 0x05	; 5
 538:	0e 94 e1 02 	call	0x5c2	; 0x5c2 <SPI_Tx>
			LCD_CLEAR();
 53c:	0e 94 04 02 	call	0x408	; 0x408 <LCD_CLEAR>
			LCD_WRITE_STR("Data transmitted");
 540:	8e e6       	ldi	r24, 0x6E	; 110
 542:	90 e0       	ldi	r25, 0x00	; 0
 544:	0e 94 f5 01 	call	0x3ea	; 0x3ea <LCD_WRITE_STR>
			Clear_array(arr,10);
 548:	6a e0       	ldi	r22, 0x0A	; 10
 54a:	ce 01       	movw	r24, r28
 54c:	01 96       	adiw	r24, 0x01	; 1
 54e:	0e 94 45 03 	call	0x68a	; 0x68a <Clear_array>
 552:	83 cf       	rjmp	.-250    	; 0x45a <main+0x4a>
		}
		else if (Compare_String(arr, "led2off"))
 554:	6d e9       	ldi	r22, 0x9D	; 157
 556:	70 e0       	ldi	r23, 0x00	; 0
 558:	ce 01       	movw	r24, r28
 55a:	01 96       	adiw	r24, 0x01	; 1
 55c:	0e 94 13 03 	call	0x626	; 0x626 <Compare_String>
 560:	88 23       	and	r24, r24
 562:	79 f0       	breq	.+30     	; 0x582 <main+0x172>
		{
			SPI_Tx(data2_off);
 564:	86 e0       	ldi	r24, 0x06	; 6
 566:	0e 94 e1 02 	call	0x5c2	; 0x5c2 <SPI_Tx>
			LCD_CLEAR();
 56a:	0e 94 04 02 	call	0x408	; 0x408 <LCD_CLEAR>
			LCD_WRITE_STR("Data transmitted");
 56e:	8e e6       	ldi	r24, 0x6E	; 110
 570:	90 e0       	ldi	r25, 0x00	; 0
 572:	0e 94 f5 01 	call	0x3ea	; 0x3ea <LCD_WRITE_STR>
			Clear_array(arr,10);
 576:	6a e0       	ldi	r22, 0x0A	; 10
 578:	ce 01       	movw	r24, r28
 57a:	01 96       	adiw	r24, 0x01	; 1
 57c:	0e 94 45 03 	call	0x68a	; 0x68a <Clear_array>
 580:	6c cf       	rjmp	.-296    	; 0x45a <main+0x4a>
		}
		
		else
		
		{   
			SPI_Tx(data_invalid);
 582:	87 e0       	ldi	r24, 0x07	; 7
 584:	0e 94 e1 02 	call	0x5c2	; 0x5c2 <SPI_Tx>
			LCD_CLEAR();
 588:	0e 94 04 02 	call	0x408	; 0x408 <LCD_CLEAR>
			LCD_WRITE_STR("invalid entry: ");
 58c:	85 ea       	ldi	r24, 0xA5	; 165
 58e:	90 e0       	ldi	r25, 0x00	; 0
 590:	0e 94 f5 01 	call	0x3ea	; 0x3ea <LCD_WRITE_STR>
			LCD_WRITE_CMD(0xC0);
 594:	80 ec       	ldi	r24, 0xC0	; 192
 596:	0e 94 23 01 	call	0x246	; 0x246 <LCD_WRITE_CMD>
			LCD_WRITE_STR(arr);
 59a:	ce 01       	movw	r24, r28
 59c:	01 96       	adiw	r24, 0x01	; 1
 59e:	0e 94 f5 01 	call	0x3ea	; 0x3ea <LCD_WRITE_STR>
			Clear_array(arr,10);
 5a2:	6a e0       	ldi	r22, 0x0A	; 10
 5a4:	ce 01       	movw	r24, r28
 5a6:	01 96       	adiw	r24, 0x01	; 1
 5a8:	0e 94 45 03 	call	0x68a	; 0x68a <Clear_array>
			LCD_WRITE_CMD(0x80);
 5ac:	80 e8       	ldi	r24, 0x80	; 128
 5ae:	0e 94 23 01 	call	0x246	; 0x246 <LCD_WRITE_CMD>
 5b2:	53 cf       	rjmp	.-346    	; 0x45a <main+0x4a>

000005b4 <SPI_Master_Init>:
	uint8_t data;
	while(GET_BIT(SPSR,SPIF) !=1 ); //wait till all data in transferred
	data=SPDR;                      //data is received in SPDR (data register)
	return data;                    //return the data
	
}
 5b4:	bd 9a       	sbi	0x17, 5	; 23
 5b6:	be 98       	cbi	0x17, 6	; 23
 5b8:	bf 9a       	sbi	0x17, 7	; 23
 5ba:	bc 9a       	sbi	0x17, 4	; 23
 5bc:	83 e5       	ldi	r24, 0x53	; 83
 5be:	8d b9       	out	0x0d, r24	; 13
 5c0:	08 95       	ret

000005c2 <SPI_Tx>:
 5c2:	8f b9       	out	0x0f, r24	; 15
 5c4:	77 9b       	sbis	0x0e, 7	; 14
 5c6:	fe cf       	rjmp	.-4      	; 0x5c4 <SPI_Tx+0x2>
 5c8:	08 95       	ret

000005ca <SPI_Slave>:
void SPI_Slave(){
	
	CLR_BIT(PORTB,SS);
 5ca:	c4 98       	cbi	0x18, 4	; 24
 5cc:	08 95       	ret

000005ce <UART_Init>:
}
void UART_Transmit(uint8_t data)
{
	UDR = data;
	while (GET_BIT(UCSRA, TXC) != 1);
}
 5ce:	88 e1       	ldi	r24, 0x18	; 24
 5d0:	8a b9       	out	0x0a, r24	; 10
 5d2:	86 e8       	ldi	r24, 0x86	; 134
 5d4:	80 bd       	out	0x20, r24	; 32
 5d6:	87 e6       	ldi	r24, 0x67	; 103
 5d8:	89 b9       	out	0x09, r24	; 9
 5da:	10 bc       	out	0x20, r1	; 32
 5dc:	08 95       	ret

000005de <UART_Receive>:
uint8_t UART_Receive(void)
{
	while (GET_BIT(UCSRA, RXC) != 1);
 5de:	5f 9b       	sbis	0x0b, 7	; 11
 5e0:	fe cf       	rjmp	.-4      	; 0x5de <UART_Receive>
	return UDR;
 5e2:	8c b1       	in	r24, 0x0c	; 12
}
 5e4:	08 95       	ret

000005e6 <UART_Receive_String>:

void UART_Receive_String(uint8_t* ptr)  //no returb, it takes an array that gets populated inside the fn
{
 5e6:	ef 92       	push	r14
 5e8:	ff 92       	push	r15
 5ea:	0f 93       	push	r16
 5ec:	1f 93       	push	r17
 5ee:	cf 93       	push	r28
 5f0:	7c 01       	movw	r14, r24
	uint8_t i;
	ptr[i] = UART_Receive();
 5f2:	c0 e0       	ldi	r28, 0x00	; 0
 5f4:	8c 01       	movw	r16, r24
 5f6:	0e 94 ef 02 	call	0x5de	; 0x5de <UART_Receive>
 5fa:	f7 01       	movw	r30, r14
 5fc:	80 83       	st	Z, r24
	while(ptr[i] != '#')
 5fe:	83 32       	cpi	r24, 0x23	; 35
 600:	51 f0       	breq	.+20     	; 0x616 <UART_Receive_String+0x30>
	{
		i++;
 602:	cf 5f       	subi	r28, 0xFF	; 255
		ptr[i] = UART_Receive();
 604:	87 01       	movw	r16, r14
 606:	0c 0f       	add	r16, r28
 608:	11 1d       	adc	r17, r1
 60a:	0e 94 ef 02 	call	0x5de	; 0x5de <UART_Receive>
 60e:	f8 01       	movw	r30, r16
 610:	80 83       	st	Z, r24

void UART_Receive_String(uint8_t* ptr)  //no returb, it takes an array that gets populated inside the fn
{
	uint8_t i;
	ptr[i] = UART_Receive();
	while(ptr[i] != '#')
 612:	83 32       	cpi	r24, 0x23	; 35
 614:	b1 f7       	brne	.-20     	; 0x602 <UART_Receive_String+0x1c>
	{
		i++;
		ptr[i] = UART_Receive();
	}
	ptr[i] = '\0';
 616:	f8 01       	movw	r30, r16
 618:	10 82       	st	Z, r1
 61a:	cf 91       	pop	r28
 61c:	1f 91       	pop	r17
 61e:	0f 91       	pop	r16
 620:	ff 90       	pop	r15
 622:	ef 90       	pop	r14
 624:	08 95       	ret

00000626 <Compare_String>:
 */ 

#include "Used_functions.h"

uint8_t Compare_String(uint8_t arr1[10], uint8_t arr2[10])
{
 626:	dc 01       	movw	r26, r24
	uint8_t i=0;
	uint8_t flag=0;
	uint8_t x=strlen(arr1);
 628:	fc 01       	movw	r30, r24
 62a:	01 90       	ld	r0, Z+
 62c:	00 20       	and	r0, r0
 62e:	e9 f7       	brne	.-6      	; 0x62a <Compare_String+0x4>
 630:	31 97       	sbiw	r30, 0x01	; 1
 632:	cf 01       	movw	r24, r30
 634:	8a 1b       	sub	r24, r26
 636:	9b 0b       	sbc	r25, r27
	uint8_t y=strlen(arr2);
 638:	fb 01       	movw	r30, r22
 63a:	01 90       	ld	r0, Z+
 63c:	00 20       	and	r0, r0
 63e:	e9 f7       	brne	.-6      	; 0x63a <Compare_String+0x14>
 640:	31 97       	sbiw	r30, 0x01	; 1
 642:	e6 1b       	sub	r30, r22
 644:	f7 0b       	sbc	r31, r23
	if (x == y)
 646:	8e 13       	cpse	r24, r30
 648:	1a c0       	rjmp	.+52     	; 0x67e <Compare_String+0x58>
	{
		while((arr2[i]!='\0'))
 64a:	fb 01       	movw	r30, r22
 64c:	80 81       	ld	r24, Z
 64e:	88 23       	and	r24, r24
 650:	d9 f0       	breq	.+54     	; 0x688 <Compare_String+0x62>
		{
			if(arr1[i]!=arr2[i])
 652:	9c 91       	ld	r25, X
 654:	89 13       	cpse	r24, r25
 656:	15 c0       	rjmp	.+42     	; 0x682 <Compare_String+0x5c>
 658:	90 e0       	ldi	r25, 0x00	; 0
 65a:	06 c0       	rjmp	.+12     	; 0x668 <Compare_String+0x42>
 65c:	fd 01       	movw	r30, r26
 65e:	e2 0f       	add	r30, r18
 660:	f3 1f       	adc	r31, r19
 662:	20 81       	ld	r18, Z
 664:	42 13       	cpse	r20, r18
 666:	0f c0       	rjmp	.+30     	; 0x686 <Compare_String+0x60>
			}
			else
			{
				flag=1;
			}
			i++;
 668:	9f 5f       	subi	r25, 0xFF	; 255
	uint8_t flag=0;
	uint8_t x=strlen(arr1);
	uint8_t y=strlen(arr2);
	if (x == y)
	{
		while((arr2[i]!='\0'))
 66a:	29 2f       	mov	r18, r25
 66c:	30 e0       	ldi	r19, 0x00	; 0
 66e:	fb 01       	movw	r30, r22
 670:	e2 0f       	add	r30, r18
 672:	f3 1f       	adc	r31, r19
 674:	40 81       	ld	r20, Z
 676:	41 11       	cpse	r20, r1
 678:	f1 cf       	rjmp	.-30     	; 0x65c <Compare_String+0x36>
				flag=0;
				break;
			}
			else
			{
				flag=1;
 67a:	81 e0       	ldi	r24, 0x01	; 1
 67c:	08 95       	ret
		return flag;
	}
        else 
		{
		flag = 0;
		return flag;
 67e:	80 e0       	ldi	r24, 0x00	; 0
 680:	08 95       	ret
	{
		while((arr2[i]!='\0'))
		{
			if(arr1[i]!=arr2[i])
			{
				flag=0;
 682:	80 e0       	ldi	r24, 0x00	; 0
 684:	08 95       	ret
 686:	80 e0       	ldi	r24, 0x00	; 0
		{
		flag = 0;
		return flag;
		}

	}
 688:	08 95       	ret

0000068a <Clear_array>:

void Clear_array(uint8_t arr[],uint8_t size)
{
	for(int i=0;i<size;i++)
 68a:	66 23       	and	r22, r22
 68c:	39 f0       	breq	.+14     	; 0x69c <Clear_array+0x12>
 68e:	fc 01       	movw	r30, r24
 690:	86 0f       	add	r24, r22
 692:	91 1d       	adc	r25, r1
	{
		arr[i] = 0;
 694:	11 92       	st	Z+, r1

	}

void Clear_array(uint8_t arr[],uint8_t size)
{
	for(int i=0;i<size;i++)
 696:	e8 17       	cp	r30, r24
 698:	f9 07       	cpc	r31, r25
 69a:	e1 f7       	brne	.-8      	; 0x694 <Clear_array+0xa>
 69c:	08 95       	ret

0000069e <_exit>:
 69e:	f8 94       	cli

000006a0 <__stop_program>:
 6a0:	ff cf       	rjmp	.-2      	; 0x6a0 <__stop_program>
